ccopy_reg
_reconstructor
p1
(ctoy_systems.CartesianMetric
CartesianMetric
p2
c__builtin__
object
p3
NtRp4
(dp5
S'p'
I2
sS'metric'
p6
S'mahalanobis'
p7
sS'_dim'
p8
NsS'VI'
p9
cnumpy.core.multiarray
_reconstruct
p10
(cnumpy
ndarray
p11
(I0
tS'b'
tRp12
(I1
(I2
I2
tcnumpy
dtype
p13
(S'f8'
I0
I1
tRp14
(I3
S'<'
NNNI-1
I-1
I0
tbI00
S'\xf0yu\xb3l\x87\xed?\x00\x00\x00\x00\x00\x00\x00\x00\x00\x00\x00\x00\x00\x00\x00\x00\x820Td\x9a\xc4\xb3?'
tbsS'V'
Nsb.